target datalayout = "e-m:e-p270:32:32-p271:32:32-p272:64:64-i64:64-i128:128-f80:128-n8:16:32:64-S128"
target triple = "x86_64-unknown-linux-gnu"

@.str.6 = private unnamed_addr constant [15 x i8] c"arenas.narenas\00", align 1
@.str.7 = private unnamed_addr constant [15 x i8] c"arena.%d.purge\00", align 1

; Function Attrs: nounwind uwtable
define dso_local i32 @jemalloc_purge() #0 {
entry:
  %retval = alloca i32, align 4
  %tmp = alloca [32 x i8], align 16
  %narenas = alloca i32, align 4
  %sz = alloca i64, align 8
  store i32 0, ptr %narenas, align 4
  store i64 4, ptr %sz, align 8
  %call = call i32 @je_mallctl(ptr noundef @.str.6, ptr noundef %narenas, ptr noundef %sz, ptr noundef null, i64 noundef 0) #12
  %tobool = icmp ne i32 %call, 0
  br i1 %tobool, label %if.end6, label %if.then

if.then:                                          ; preds = %entry
  %arraydecay = getelementptr inbounds [32 x i8], ptr %tmp, i64 0, i64 0
  %0 = load i32, ptr %narenas, align 4
  %call1 = call i32 (ptr, i64, ptr, ...) @snprintf(ptr noundef %arraydecay, i64 noundef 32, ptr noundef @.str.7, i32 noundef %0) #12
  %arraydecay2 = getelementptr inbounds [32 x i8], ptr %tmp, i64 0, i64 0
  %call3 = call i32 @je_mallctl(ptr noundef %arraydecay2, ptr noundef null, ptr noundef null, ptr noundef null, i64 noundef 0) #12
  %tobool4 = icmp ne i32 %call3, 0
  br i1 %tobool4, label %if.end, label %if.then5

if.then5:                                         ; preds = %if.then
  store i32 0, ptr %retval, align 4
  br label %return

if.end:                                           ; preds = %if.then
  br label %if.end6

if.end6:                                          ; preds = %if.end, %entry
  store i32 -1, ptr %retval, align 4
  br label %return

return:                                           ; preds = %if.end6, %if.then5
  %1 = load i32, ptr %retval, align 4
  ret i32 %1
}